target datalayout = "e-m:e-p270:32:32-p271:32:32-p272:64:64-i64:64-i128:128-f80:128-n8:16:32:64-S128"
target triple = "x86_64-pc-linux-gnu"

%struct.cli_ac_patt = type { ptr, ptr, [3 x i16], [3 x i16], i32, i32, i32, [3 x i32], [2 x i16], ptr, ptr, [2 x i16], [2 x i16], i16, i16, i16, i16, ptr, i16, i16, [4 x i32], i32, i32, i32, i8, i8 }
%struct.cli_ac_special = type { %union.anon.2, [2 x i16], i16, i16, i16 }
%union.anon.2 = type { ptr }
%struct.cli_alt_node = type { ptr, i16, i8, ptr }

; Function Attrs: nounwind uwtable
define internal void @ac_free_special(ptr noundef %0, ptr noundef %1) #0 {
  %3 = alloca ptr, align 8
  %4 = alloca ptr, align 8
  %5 = alloca i32, align 4
  %6 = alloca i32, align 4
  %7 = alloca ptr, align 8
  %8 = alloca ptr, align 8
  %9 = alloca ptr, align 8
  %10 = alloca i32, align 4
  store ptr %0, ptr %3, align 8, !tbaa !68
  store ptr %1, ptr %4, align 8, !tbaa !8
  call void @llvm.lifetime.start.p0(i64 4, ptr %5) #16
  call void @llvm.lifetime.start.p0(i64 4, ptr %6) #16
  call void @llvm.lifetime.start.p0(i64 8, ptr %7) #16
  call void @llvm.lifetime.start.p0(i64 8, ptr %8) #16
  call void @llvm.lifetime.start.p0(i64 8, ptr %9) #16
  %11 = load ptr, ptr %4, align 8, !tbaa !8
  %12 = getelementptr inbounds nuw %struct.cli_ac_patt, ptr %11, i32 0, i32 15
  %13 = load i16, ptr %12, align 4, !tbaa !64
  %14 = icmp ne i16 %13, 0
  br i1 %14, label %16, label %15

15:                                               ; preds = %2
  store i32 1, ptr %10, align 4
  br label %111

16:                                               ; preds = %2
  store i32 0, ptr %5, align 4, !tbaa !49
  br label %17

17:                                               ; preds = %103, %16
  %18 = load i32, ptr %5, align 4, !tbaa !49
  %19 = load ptr, ptr %4, align 8, !tbaa !8
  %20 = getelementptr inbounds nuw %struct.cli_ac_patt, ptr %19, i32 0, i32 15
  %21 = load i16, ptr %20, align 4, !tbaa !64
  %22 = zext i16 %21 to i32
  %23 = icmp ult i32 %18, %22
  br i1 %23, label %24, label %106

24:                                               ; preds = %17
  %25 = load ptr, ptr %4, align 8, !tbaa !8
  %26 = getelementptr inbounds nuw %struct.cli_ac_patt, ptr %25, i32 0, i32 17
  %27 = load ptr, ptr %26, align 8, !tbaa !69
  %28 = load i32, ptr %5, align 4, !tbaa !49
  %29 = zext i32 %28 to i64
  %30 = getelementptr inbounds nuw ptr, ptr %27, i64 %29
  %31 = load ptr, ptr %30, align 8, !tbaa !70
  store ptr %31, ptr %7, align 8, !tbaa !70
  %32 = load ptr, ptr %7, align 8, !tbaa !70
  %33 = getelementptr inbounds nuw %struct.cli_ac_special, ptr %32, i32 0, i32 3
  %34 = load i16, ptr %33, align 2, !tbaa !72
  %35 = zext i16 %34 to i32
  %36 = icmp eq i32 %35, 1
  br i1 %36, label %37, label %42

37:                                               ; preds = %24
  %38 = load ptr, ptr %3, align 8, !tbaa !68
  %39 = load ptr, ptr %7, align 8, !tbaa !70
  %40 = getelementptr inbounds nuw %struct.cli_ac_special, ptr %39, i32 0, i32 0
  %41 = load ptr, ptr %40, align 8, !tbaa !55
  call void @mpool_free(ptr noundef %38, ptr noundef %41)
  br label %100

42:                                               ; preds = %24
  %43 = load ptr, ptr %7, align 8, !tbaa !70
  %44 = getelementptr inbounds nuw %struct.cli_ac_special, ptr %43, i32 0, i32 3
  %45 = load i16, ptr %44, align 2, !tbaa !72
  %46 = zext i16 %45 to i32
  %47 = icmp eq i32 %46, 2
  br i1 %47, label %48, label %73

48:                                               ; preds = %42
  store i32 0, ptr %6, align 4, !tbaa !49
  br label %49

49:                                               ; preds = %65, %48
  %50 = load i32, ptr %6, align 4, !tbaa !49
  %51 = load ptr, ptr %7, align 8, !tbaa !70
  %52 = getelementptr inbounds nuw %struct.cli_ac_special, ptr %51, i32 0, i32 2
  %53 = load i16, ptr %52, align 4, !tbaa !74
  %54 = zext i16 %53 to i32
  %55 = icmp ult i32 %50, %54
  br i1 %55, label %56, label %68

56:                                               ; preds = %49
  %57 = load ptr, ptr %3, align 8, !tbaa !68
  %58 = load ptr, ptr %7, align 8, !tbaa !70
  %59 = getelementptr inbounds nuw %struct.cli_ac_special, ptr %58, i32 0, i32 0
  %60 = load ptr, ptr %59, align 8, !tbaa !55
  %61 = load i32, ptr %6, align 4, !tbaa !49
  %62 = zext i32 %61 to i64
  %63 = getelementptr inbounds nuw ptr, ptr %60, i64 %62
  %64 = load ptr, ptr %63, align 8, !tbaa !75
  call void @mpool_free(ptr noundef %57, ptr noundef %64)
  br label %65

65:                                               ; preds = %56
  %66 = load i32, ptr %6, align 4, !tbaa !49
  %67 = add i32 %66, 1
  store i32 %67, ptr %6, align 4, !tbaa !49
  br label %49

68:                                               ; preds = %49
  %69 = load ptr, ptr %3, align 8, !tbaa !68
  %70 = load ptr, ptr %7, align 8, !tbaa !70
  %71 = getelementptr inbounds nuw %struct.cli_ac_special, ptr %70, i32 0, i32 0
  %72 = load ptr, ptr %71, align 8, !tbaa !55
  call void @mpool_free(ptr noundef %69, ptr noundef %72)
  br label %99

73:                                               ; preds = %42
  %74 = load ptr, ptr %7, align 8, !tbaa !70
  %75 = getelementptr inbounds nuw %struct.cli_ac_special, ptr %74, i32 0, i32 3
  %76 = load i16, ptr %75, align 2, !tbaa !72
  %77 = zext i16 %76 to i32
  %78 = icmp eq i32 %77, 3
  br i1 %78, label %79, label %98

79:                                               ; preds = %73
  %80 = load ptr, ptr %7, align 8, !tbaa !70
  %81 = getelementptr inbounds nuw %struct.cli_ac_special, ptr %80, i32 0, i32 0
  %82 = load ptr, ptr %81, align 8, !tbaa !55
  store ptr %82, ptr %8, align 8, !tbaa !76
  br label %83

83:                                               ; preds = %86, %79
  %84 = load ptr, ptr %8, align 8, !tbaa !76
  %85 = icmp ne ptr %84, null
  br i1 %85, label %86, label %97

86:                                               ; preds = %83
  %87 = load ptr, ptr %8, align 8, !tbaa !76
  %88 = getelementptr inbounds nuw %struct.cli_alt_node, ptr %87, i32 0, i32 3
  %89 = load ptr, ptr %88, align 8, !tbaa !78
  store ptr %89, ptr %9, align 8, !tbaa !76
  %90 = load ptr, ptr %3, align 8, !tbaa !68
  %91 = load ptr, ptr %8, align 8, !tbaa !76
  %92 = getelementptr inbounds nuw %struct.cli_alt_node, ptr %91, i32 0, i32 0
  %93 = load ptr, ptr %92, align 8, !tbaa !80
  call void @mpool_free(ptr noundef %90, ptr noundef %93)
  %94 = load ptr, ptr %3, align 8, !tbaa !68
  %95 = load ptr, ptr %8, align 8, !tbaa !76
  call void @mpool_free(ptr noundef %94, ptr noundef %95)
  %96 = load ptr, ptr %9, align 8, !tbaa !76
  store ptr %96, ptr %8, align 8, !tbaa !76
  br label %83

97:                                               ; preds = %83
  br label %98

98:                                               ; preds = %97, %73
  br label %99

99:                                               ; preds = %98, %68
  br label %100

100:                                              ; preds = %99, %37
  %101 = load ptr, ptr %3, align 8, !tbaa !68
  %102 = load ptr, ptr %7, align 8, !tbaa !70
  call void @mpool_free(ptr noundef %101, ptr noundef %102)
  br label %103

103:                                              ; preds = %100
  %104 = load i32, ptr %5, align 4, !tbaa !49
  %105 = add i32 %104, 1
  store i32 %105, ptr %5, align 4, !tbaa !49
  br label %17

106:                                              ; preds = %17
  %107 = load ptr, ptr %3, align 8, !tbaa !68
  %108 = load ptr, ptr %4, align 8, !tbaa !8
  %109 = getelementptr inbounds nuw %struct.cli_ac_patt, ptr %108, i32 0, i32 17
  %110 = load ptr, ptr %109, align 8, !tbaa !69
  call void @mpool_free(ptr noundef %107, ptr noundef %110)
  store i32 0, ptr %10, align 4
  br label %111

111:                                              ; preds = %106, %15
  call void @llvm.lifetime.end.p0(i64 8, ptr %9) #16
  call void @llvm.lifetime.end.p0(i64 8, ptr %8) #16
  call void @llvm.lifetime.end.p0(i64 8, ptr %7) #16
  call void @llvm.lifetime.end.p0(i64 4, ptr %6) #16
  call void @llvm.lifetime.end.p0(i64 4, ptr %5) #16
  %112 = load i32, ptr %10, align 4
  switch i32 %112, label %114 [
    i32 0, label %113
    i32 1, label %113
  ]

113:                                              ; preds = %111, %111
  ret void

114:                                              ; preds = %111
  unreachable
}