; Function Attrs: nounwind uwtable
define internal fastcc void @ac_free_special(ptr noundef %0, ptr noundef readonly captures(none) %1) unnamed_addr #0 {
  %3 = getelementptr inbounds nuw i8, ptr %1, i64 84
  %4 = load i16, ptr %3, align 4, !tbaa !70
  %.not = icmp eq i16 %4, 0
  br i1 %.not, label %31, label %.lr.ph40

.lr.ph40:                                         ; preds = %2
  %5 = getelementptr inbounds nuw i8, ptr %1, i64 88
  br label %6

6:                                                ; preds = %.lr.ph40, %.loopexit
  %indvars.iv45 = phi i64 [ 0, %.lr.ph40 ], [ %indvars.iv.next46, %.loopexit ]
  %7 = load ptr, ptr %5, align 8, !tbaa !74
  %8 = getelementptr inbounds nuw ptr, ptr %7, i64 %indvars.iv45
  %9 = load ptr, ptr %8, align 8, !tbaa !75
  %10 = getelementptr inbounds nuw i8, ptr %9, i64 14
  %11 = load i16, ptr %10, align 2, !tbaa !77
  switch i16 %11, label %.loopexit [
    i16 1, label %.loopexit.sink.split
    i16 2, label %.preheader
    i16 3, label %20
  ]

.preheader:                                       ; preds = %6
  %12 = getelementptr inbounds nuw i8, ptr %9, i64 12
  %13 = load i16, ptr %12, align 4, !tbaa !79
  %.not43 = icmp eq i16 %13, 0
  br i1 %.not43, label %.loopexit.sink.split, label %.lr.ph38

.lr.ph38:                                         ; preds = %.preheader, %.lr.ph38
  %indvars.iv = phi i64 [ %indvars.iv.next, %.lr.ph38 ], [ 0, %.preheader ]
  %14 = load ptr, ptr %9, align 8, !tbaa !42
  %15 = getelementptr inbounds nuw ptr, ptr %14, i64 %indvars.iv
  %16 = load ptr, ptr %15, align 8, !tbaa !80
  tail call void @mpool_free(ptr noundef %0, ptr noundef %16) #19
  %indvars.iv.next = add nuw nsw i64 %indvars.iv, 1
  %17 = load i16, ptr %12, align 4, !tbaa !79
  %18 = zext i16 %17 to i64
  %19 = icmp samesign ult i64 %indvars.iv.next, %18
  br i1 %19, label %.lr.ph38, label %.loopexit.sink.split

20:                                               ; preds = %6
  %21 = load ptr, ptr %9, align 8, !tbaa !42
  %.not3335 = icmp eq ptr %21, null
  br i1 %.not3335, label %.loopexit, label %.lr.ph

.lr.ph:                                           ; preds = %20, %.lr.ph
  %.03036 = phi ptr [ %23, %.lr.ph ], [ %21, %20 ]
  %22 = getelementptr inbounds nuw i8, ptr %.03036, i64 16
  %23 = load ptr, ptr %22, align 8, !tbaa !81
  %24 = load ptr, ptr %.03036, align 8, !tbaa !84
  tail call void @mpool_free(ptr noundef %0, ptr noundef %24) #19
  tail call void @mpool_free(ptr noundef %0, ptr noundef nonnull %.03036) #19
  %.not33 = icmp eq ptr %23, null
  br i1 %.not33, label %.loopexit, label %.lr.ph

.loopexit.sink.split:                             ; preds = %.lr.ph38, %.preheader, %6
  %25 = load ptr, ptr %9, align 8, !tbaa !42
  tail call void @mpool_free(ptr noundef %0, ptr noundef %25) #19
  br label %.loopexit

.loopexit:                                        ; preds = %.lr.ph, %.loopexit.sink.split, %20, %6
  tail call void @mpool_free(ptr noundef %0, ptr noundef %9) #19
  %indvars.iv.next46 = add nuw nsw i64 %indvars.iv45, 1
  %26 = load i16, ptr %3, align 4, !tbaa !70
  %27 = zext i16 %26 to i64
  %28 = icmp samesign ult i64 %indvars.iv.next46, %27
  br i1 %28, label %6, label %._crit_edge41

._crit_edge41:                                    ; preds = %.loopexit
  %29 = getelementptr inbounds nuw i8, ptr %1, i64 88
  %30 = load ptr, ptr %29, align 8, !tbaa !74
  tail call void @mpool_free(ptr noundef %0, ptr noundef %30) #19
  br label %31

31:                                               ; preds = %2, %._crit_edge41
  ret void
}